target datalayout = "e-m:e-p270:32:32-p271:32:32-p272:64:64-i64:64-i128:128-f80:128-n8:16:32:64-S128"
target triple = "x86_64-pc-linux-gnu"

%struct.DynBuf = type { ptr, i64, i64, i32, ptr, ptr }

; Function Attrs: nounwind uwtable
define internal i32 @dbuf_insert(ptr noundef %0, i32 noundef %1, i32 noundef %2) #0 {
  %4 = alloca i32, align 4
  %5 = alloca ptr, align 8
  %6 = alloca i32, align 4
  %7 = alloca i32, align 4
  store ptr %0, ptr %5, align 8
  store i32 %1, ptr %6, align 4
  store i32 %2, ptr %7, align 4
  %8 = load ptr, ptr %5, align 8
  %9 = load ptr, ptr %5, align 8
  %10 = getelementptr inbounds %struct.DynBuf, ptr %9, i32 0, i32 1
  %11 = load i64, ptr %10, align 8
  %12 = load i32, ptr %7, align 4
  %13 = sext i32 %12 to i64
  %14 = add i64 %11, %13
  %15 = call i32 @dbuf_realloc(ptr noundef %8, i64 noundef %14)
  %16 = icmp ne i32 %15, 0
  br i1 %16, label %17, label %18

17:                                               ; preds = %3
  store i32 -1, ptr %4, align 4
  br label %46

18:                                               ; preds = %3
  %19 = load ptr, ptr %5, align 8
  %20 = getelementptr inbounds %struct.DynBuf, ptr %19, i32 0, i32 0
  %21 = load ptr, ptr %20, align 8
  %22 = load i32, ptr %6, align 4
  %23 = sext i32 %22 to i64
  %24 = getelementptr i8, ptr %21, i64 %23
  %25 = load i32, ptr %7, align 4
  %26 = sext i32 %25 to i64
  %27 = getelementptr i8, ptr %24, i64 %26
  %28 = load ptr, ptr %5, align 8
  %29 = getelementptr inbounds %struct.DynBuf, ptr %28, i32 0, i32 0
  %30 = load ptr, ptr %29, align 8
  %31 = load i32, ptr %6, align 4
  %32 = sext i32 %31 to i64
  %33 = getelementptr i8, ptr %30, i64 %32
  %34 = load ptr, ptr %5, align 8
  %35 = getelementptr inbounds %struct.DynBuf, ptr %34, i32 0, i32 1
  %36 = load i64, ptr %35, align 8
  %37 = load i32, ptr %6, align 4
  %38 = sext i32 %37 to i64
  %39 = sub i64 %36, %38
  call void @llvm.memmove.p0.p0.i64(ptr align 1 %27, ptr align 1 %33, i64 %39, i1 false)
  %40 = load i32, ptr %7, align 4
  %41 = sext i32 %40 to i64
  %42 = load ptr, ptr %5, align 8
  %43 = getelementptr inbounds %struct.DynBuf, ptr %42, i32 0, i32 1
  %44 = load i64, ptr %43, align 8
  %45 = add i64 %44, %41
  store i64 %45, ptr %43, align 8
  store i32 0, ptr %4, align 4
  br label %46

46:                                               ; preds = %18, %17
  %47 = load i32, ptr %4, align 4
  ret i32 %47
}