; Function Attrs: nounwind uwtable
define internal fastcc noundef i32 @dbuf_insert(ptr noundef %0, i32 noundef %1, i32 noundef %2) unnamed_addr #2 {
  %4 = getelementptr inbounds i8, ptr %0, i64 8
  %5 = load i64, ptr %4, align 8
  %6 = zext nneg i32 %2 to i64
  %7 = add i64 %5, %6
  %8 = tail call i32 @dbuf_realloc(ptr noundef %0, i64 noundef %7) #17
  %.not = icmp eq i32 %8, 0
  br i1 %.not, label %9, label %18

9:                                                ; preds = %3
  %10 = load ptr, ptr %0, align 8
  %11 = sext i32 %1 to i64
  %12 = getelementptr i8, ptr %10, i64 %11
  %13 = getelementptr i8, ptr %12, i64 %6
  %14 = load i64, ptr %4, align 8
  %15 = sub i64 %14, %11
  tail call void @llvm.memmove.p0.p0.i64(ptr align 1 %13, ptr align 1 %12, i64 %15, i1 false)
  %16 = load i64, ptr %4, align 8
  %17 = add i64 %16, %6
  store i64 %17, ptr %4, align 8
  br label %18

18:                                               ; preds = %3, %9
  %.0 = phi i32 [ 0, %9 ], [ -1, %3 ]
  ret i32 %.0
}